#include <math.h>
#include <stdio.h>
#include <stdlib.h>
#include <string.h>

int main(){
	int n,k,i,j,flag =1,first = 0;
	int num[1000]={0},sub=0;
	scanf("%d%d", &n,&k);
	for(i = 0;i<n;i++){
		scanf("%d", &num[i]);
	}
	for(i = 0;i<n;i++){
	    sub = k - num[i];
		for(j = i +1;j<n;j++){
			if(sub == num[j]){
				flag = 0;
				first =1;
				break;
			}
		}
		if(first)
			break;
	}
	if(flag)
		printf("no");
	else
		printf("yes");
	return 0;
}